; Function Attrs: nounwind uwtable
define ptr @l_Lean_Meta_Grind_Arith_Cutsat_resolveCooperDiseq___lambda__1(ptr noundef %0, ptr noundef %1, ptr noundef %2, ptr readnone captures(none) %3, i8 noundef zeroext %4, ptr noundef %5, ptr noundef %6, ptr noundef %7, ptr noundef %8, ptr noundef %9, ptr noundef %10, ptr noundef %11, ptr noundef %12, ptr noundef %13, ptr noundef %14) local_unnamed_addr #1 {
  %16 = ptrtoint ptr %0 to i64
  %17 = and i64 %16, 1
  %.not.i33 = icmp eq i64 %17, 0
  br i1 %.not.i33, label %21, label %18

18:                                               ; preds = %15
  %19 = lshr i64 %16, 1
  %20 = trunc i64 %19 to i32
  br label %lean_obj_tag.exit

21:                                               ; preds = %15
  %22 = getelementptr i8, ptr %0, i64 4
  %.val.i = load i32, ptr %22, align 4
  %23 = lshr i32 %.val.i, 24
  br label %lean_obj_tag.exit

lean_obj_tag.exit:                                ; preds = %18, %21
  %.0.i = phi i32 [ %20, %18 ], [ %23, %21 ]
  %24 = icmp eq i32 %.0.i, 0
  br i1 %24, label %25, label %27

25:                                               ; preds = %lean_obj_tag.exit
  %26 = tail call ptr @l_Lean_Meta_Grind_Arith_Cutsat_resolveCooper(ptr noundef %1, ptr noundef %2, i8 noundef zeroext %4, ptr noundef %5, ptr noundef %6, ptr noundef %7, ptr noundef %8, ptr noundef %9, ptr noundef %10, ptr noundef %11, ptr noundef %12, ptr noundef %13, ptr noundef %14)
  br label %46

27:                                               ; preds = %lean_obj_tag.exit
  %28 = getelementptr inbounds nuw i8, ptr %0, i64 8
  %29 = load ptr, ptr %28, align 8, !tbaa !11
  %30 = ptrtoint ptr %29 to i64
  %31 = and i64 %30, 1
  %.not = icmp eq i64 %31, 0
  br i1 %.not, label %32, label %lean_inc.exit

32:                                               ; preds = %27
  %.val.i34 = load i32, ptr %29, align 4, !tbaa !6
  %33 = icmp sgt i32 %.val.i34, 0
  br i1 %33, label %34, label %36, !prof !5

34:                                               ; preds = %32
  %35 = add nuw i32 %.val.i34, 1
  store i32 %35, ptr %29, align 4, !tbaa !6
  br label %lean_inc.exit

36:                                               ; preds = %32
  %.not.i35 = icmp eq i32 %.val.i34, 0
  br i1 %.not.i35, label %lean_inc.exit, label %37

37:                                               ; preds = %36
  tail call void @lean_inc_ref_cold(ptr noundef nonnull %29) #6
  br label %lean_inc.exit

lean_inc.exit:                                    ; preds = %37, %36, %34, %27
  br i1 %.not.i33, label %38, label %lean_dec.exit

38:                                               ; preds = %lean_inc.exit
  %39 = load i32, ptr %0, align 4, !tbaa !6
  %40 = icmp sgt i32 %39, 1
  br i1 %40, label %41, label %43, !prof !5

41:                                               ; preds = %38
  %42 = add nsw i32 %39, -1
  store i32 %42, ptr %0, align 4, !tbaa !6
  br label %lean_dec.exit

43:                                               ; preds = %38
  %.not.i = icmp eq i32 %39, 0
  br i1 %.not.i, label %lean_dec.exit, label %44

44:                                               ; preds = %43
  tail call void @lean_dec_ref_cold(ptr noundef nonnull %0) #6
  br label %lean_dec.exit

lean_dec.exit:                                    ; preds = %44, %43, %41, %lean_inc.exit
  %45 = tail call ptr @l_Lean_Meta_Grind_Arith_Cutsat_resolveCooperDvd(ptr noundef %1, ptr noundef %2, ptr noundef %29, i8 noundef zeroext %4, ptr noundef %5, ptr noundef %6, ptr noundef %7, ptr noundef %8, ptr noundef %9, ptr noundef %10, ptr noundef %11, ptr noundef %12, ptr noundef %13, ptr noundef %14)
  br label %46

46:                                               ; preds = %lean_dec.exit, %25
  %.0 = phi ptr [ %26, %25 ], [ %45, %lean_dec.exit ]
  ret ptr %.0
}